; Function Attrs: mustprogress uwtable
define hidden void @_ZN4cvc58internal6theory2bv5utils7mkConstEjj(ptr dead_on_unwind noalias writable sret(%"class.cvc5::internal::NodeTemplate.0") align 8 %0, i32 noundef %1, i32 noundef %2) local_unnamed_addr #3 personality ptr @__gxx_personality_v0 {
  %4 = alloca %"class.cvc5::internal::BitVector", align 8
  call void @llvm.lifetime.start.p0(i64 24, ptr nonnull %4) #22
  call void @_ZN4cvc58internal9BitVectorC2Ejj(ptr noundef nonnull align 8 dereferenceable(24) %4, i32 noundef %1, i32 noundef %2)
  %5 = invoke noundef ptr @_ZN4cvc58internal11NodeManager9currentNMEv()
          to label %6 unwind label %12

6:                                                ; preds = %3
  invoke void @_ZN4cvc58internal11NodeManager7mkConstINS0_9BitVectorEEENS0_12NodeTemplateILb1EEERKT_(ptr dead_on_unwind writable sret(%"class.cvc5::internal::NodeTemplate.0") align 8 %0, ptr noundef nonnull align 8 dereferenceable(3560) %5, ptr noundef nonnull align 8 dereferenceable(24) %4)
          to label %7 unwind label %12

7:                                                ; preds = %6
  %8 = getelementptr inbounds nuw i8, ptr %4, i64 8
  invoke void @__gmpz_clear(ptr noundef nonnull align 8 dereferenceable(16) %8)
          to label %_ZN4cvc58internal9BitVectorD2Ev.exit unwind label %9

9:                                                ; preds = %7
  %10 = landingpad { ptr, i32 }
          catch ptr null
  %11 = extractvalue { ptr, i32 } %10, 0
  call void @__clang_call_terminate(ptr %11) #23
  unreachable

_ZN4cvc58internal9BitVectorD2Ev.exit:             ; preds = %7
  call void @llvm.lifetime.end.p0(i64 24, ptr nonnull %4) #22
  ret void

12:                                               ; preds = %6, %3
  %13 = landingpad { ptr, i32 }
          cleanup
  %14 = getelementptr inbounds nuw i8, ptr %4, i64 8
  invoke void @__gmpz_clear(ptr noundef nonnull align 8 dereferenceable(16) %14)
          to label %_ZN4cvc58internal9BitVectorD2Ev.exit3 unwind label %15

15:                                               ; preds = %12
  %16 = landingpad { ptr, i32 }
          catch ptr null
  %17 = extractvalue { ptr, i32 } %16, 0
  call void @__clang_call_terminate(ptr %17) #23
  unreachable

_ZN4cvc58internal9BitVectorD2Ev.exit3:            ; preds = %12
  call void @llvm.lifetime.end.p0(i64 24, ptr nonnull %4) #22
  resume { ptr, i32 } %13
}